; ModuleID = '7/1010.c'
source_filename = "7/1010.c"
target datalayout = "e-m:e-p270:32:32-p271:32:32-p272:64:64-i64:64-f80:128-n8:16:32:64-S128"
target triple = "x86_64-pc-linux-gnu"

; Function Attrs: noinline nounwind uwtable
define dso_local i32 @main() #0 {
  %1 = alloca i32, align 4
  %2 = alloca i32, align 4
  %3 = alloca i32, align 4
  %4 = alloca i32, align 4
  %5 = alloca i32, align 4
  %6 = alloca i32, align 4
  %7 = alloca i32, align 4
  %8 = alloca [256 x i8], align 16
  %9 = alloca [256 x i8], align 16
  %10 = alloca [256 x i8], align 16
  store i32 0, i32* %1, align 4
  %11 = getelementptr inbounds [256 x i8], [256 x i8]* %8, i64 0, i64 0
  %12 = call i32 (i8*, ...) bitcast (i32 (...)* @gets to i32 (i8*, ...)*)(i8* %11)
  %13 = getelementptr inbounds [256 x i8], [256 x i8]* %9, i64 0, i64 0
  %14 = call i32 (i8*, ...) bitcast (i32 (...)* @gets to i32 (i8*, ...)*)(i8* %13)
  %15 = getelementptr inbounds [256 x i8], [256 x i8]* %10, i64 0, i64 0
  %16 = call i32 (i8*, ...) bitcast (i32 (...)* @gets to i32 (i8*, ...)*)(i8* %15)
  %17 = getelementptr inbounds [256 x i8], [256 x i8]* %8, i64 0, i64 0
  %18 = call i64 @strlen(i8* %17) #3
  %19 = trunc i64 %18 to i32
  store i32 %19, i32* %4, align 4
  %20 = getelementptr inbounds [256 x i8], [256 x i8]* %9, i64 0, i64 0
  %21 = call i64 @strlen(i8* %20) #3
  %22 = trunc i64 %21 to i32
  store i32 %22, i32* %5, align 4
  %23 = getelementptr inbounds [256 x i8], [256 x i8]* %10, i64 0, i64 0
  %24 = call i64 @strlen(i8* %23) #3
  %25 = trunc i64 %24 to i32
  store i32 %25, i32* %6, align 4
  store i32 0, i32* %7, align 4
  store i32 0, i32* %2, align 4
  br label %26

26:                                               ; preds = %77, %0
  %27 = load i32, i32* %2, align 4
  %28 = load i32, i32* %4, align 4
  %29 = sub nsw i32 %28, 1
  %30 = icmp sle i32 %27, %29
  br i1 %30, label %31, label %80

31:                                               ; preds = %26
  store i32 0, i32* %3, align 4
  br label %32

32:                                               ; preds = %69, %31
  %33 = load i32, i32* %3, align 4
  %34 = load i32, i32* %5, align 4
  %35 = sub nsw i32 %34, 1
  %36 = icmp sle i32 %33, %35
  br i1 %36, label %37, label %44

37:                                               ; preds = %32
  %38 = load i32, i32* %2, align 4
  %39 = load i32, i32* %3, align 4
  %40 = add nsw i32 %38, %39
  %41 = load i32, i32* %4, align 4
  %42 = sub nsw i32 %41, 1
  %43 = icmp sle i32 %40, %42
  br label %44

44:                                               ; preds = %37, %32
  %45 = phi i1 [ false, %32 ], [ %43, %37 ]
  br i1 %45, label %46, label %72

46:                                               ; preds = %44
  %47 = load i32, i32* %2, align 4
  %48 = load i32, i32* %3, align 4
  %49 = add nsw i32 %47, %48
  %50 = sext i32 %49 to i64
  %51 = getelementptr inbounds [256 x i8], [256 x i8]* %8, i64 0, i64 %50
  %52 = load i8, i8* %51, align 1
  %53 = sext i8 %52 to i32
  %54 = load i32, i32* %3, align 4
  %55 = sext i32 %54 to i64
  %56 = getelementptr inbounds [256 x i8], [256 x i8]* %9, i64 0, i64 %55
  %57 = load i8, i8* %56, align 1
  %58 = sext i8 %57 to i32
  %59 = icmp eq i32 %53, %58
  br i1 %59, label %60, label %67

60:                                               ; preds = %46
  %61 = load i32, i32* %3, align 4
  %62 = load i32, i32* %5, align 4
  %63 = sub nsw i32 %62, 1
  %64 = icmp eq i32 %61, %63
  br i1 %64, label %65, label %66

65:                                               ; preds = %60
  store i32 1, i32* %7, align 4
  br label %66

66:                                               ; preds = %65, %60
  br label %68

67:                                               ; preds = %46
  br label %72

68:                                               ; preds = %66
  br label %69

69:                                               ; preds = %68
  %70 = load i32, i32* %3, align 4
  %71 = add nsw i32 %70, 1
  store i32 %71, i32* %3, align 4
  br label %32

72:                                               ; preds = %67, %44
  %73 = load i32, i32* %7, align 4
  %74 = icmp eq i32 %73, 1
  br i1 %74, label %75, label %76

75:                                               ; preds = %72
  br label %80

76:                                               ; preds = %72
  br label %77

77:                                               ; preds = %76
  %78 = load i32, i32* %2, align 4
  %79 = add nsw i32 %78, 1
  store i32 %79, i32* %2, align 4
  br label %26

80:                                               ; preds = %75, %26
  %81 = load i32, i32* %7, align 4
  %82 = icmp eq i32 %81, 1
  br i1 %82, label %83, label %103

83:                                               ; preds = %80
  store i32 0, i32* %3, align 4
  br label %84

84:                                               ; preds = %99, %83
  %85 = load i32, i32* %3, align 4
  %86 = load i32, i32* %6, align 4
  %87 = sub nsw i32 %86, 1
  %88 = icmp sle i32 %85, %87
  br i1 %88, label %89, label %102

89:                                               ; preds = %84
  %90 = load i32, i32* %3, align 4
  %91 = sext i32 %90 to i64
  %92 = getelementptr inbounds [256 x i8], [256 x i8]* %10, i64 0, i64 %91
  %93 = load i8, i8* %92, align 1
  %94 = load i32, i32* %2, align 4
  %95 = load i32, i32* %3, align 4
  %96 = add nsw i32 %94, %95
  %97 = sext i32 %96 to i64
  %98 = getelementptr inbounds [256 x i8], [256 x i8]* %8, i64 0, i64 %97
  store i8 %93, i8* %98, align 1
  br label %99

99:                                               ; preds = %89
  %100 = load i32, i32* %3, align 4
  %101 = add nsw i32 %100, 1
  store i32 %101, i32* %3, align 4
  br label %84

102:                                              ; preds = %84
  br label %103

103:                                              ; preds = %102, %80
  %104 = getelementptr inbounds [256 x i8], [256 x i8]* %8, i64 0, i64 0
  %105 = call i32 @puts(i8* %104)
  %106 = load i32, i32* %1, align 4
  ret i32 %106
}

declare dso_local i32 @gets(...) #1

; Function Attrs: nounwind readonly
declare dso_local i64 @strlen(i8*) #2

declare dso_local i32 @puts(i8*) #1


!llvm.module.flags = !{!0}
!llvm.ident = !{!1}

!0 = !{i32 1, !"wchar_size", i32 4}
!1 = !{!"clang version 10.0.0-4ubuntu1 "}
